target datalayout = "e-m:e-p270:32:32-p271:32:32-p272:64:64-i64:64-i128:128-f80:128-n8:16:32:64-S128"
target triple = "x86_64-pc-linux-gnu"

; Function Attrs: alwaysinline nounwind uwtable
define internal void @mbedtls_put_unaligned_uint64(ptr noundef %0, i64 noundef %1) #3 {
  %3 = alloca ptr, align 8
  %4 = alloca i64, align 8
  store ptr %0, ptr %3, align 8, !tbaa !18
  store i64 %1, ptr %4, align 8, !tbaa !24
  %5 = load ptr, ptr %3, align 8, !tbaa !18
  call void @llvm.memcpy.p0.p0.i64(ptr align 1 %5, ptr align 8 %4, i64 8, i1 false)
  ret void
}

; Function Attrs: alwaysinline nounwind uwtable
define internal i64 @mbedtls_get_unaligned_uint64(ptr noundef %0) #3 {
  %2 = alloca ptr, align 8
  %3 = alloca i64, align 8
  store ptr %0, ptr %2, align 8, !tbaa !18
  call void @llvm.lifetime.start.p0(i64 8, ptr %3) #9
  %4 = load ptr, ptr %2, align 8, !tbaa !18
  call void @llvm.memcpy.p0.p0.i64(ptr align 8 %3, ptr align 1 %4, i64 8, i1 false)
  %5 = load i64, ptr %3, align 8, !tbaa !24
  call void @llvm.lifetime.end.p0(i64 8, ptr %3) #9
  ret i64 %5
}

; Function Attrs: alwaysinline nounwind uwtable
define internal void @mbedtls_xor(ptr noundef %0, ptr noundef %1, ptr noundef %2, i64 noundef %3) #3 {
  %5 = alloca ptr, align 8
  %6 = alloca ptr, align 8
  %7 = alloca ptr, align 8
  %8 = alloca i64, align 8
  %9 = alloca i64, align 8
  %10 = alloca i64, align 8
  store ptr %0, ptr %5, align 8, !tbaa !8
  store ptr %1, ptr %6, align 8, !tbaa !8
  store ptr %2, ptr %7, align 8, !tbaa !8
  store i64 %3, ptr %8, align 8, !tbaa !24
  call void @llvm.lifetime.start.p0(i64 8, ptr %9) #9
  store i64 0, ptr %9, align 8, !tbaa !24
  br label %11

11:                                               ; preds = %30, %4
  %12 = load i64, ptr %9, align 8, !tbaa !24
  %13 = add i64 %12, 8
  %14 = load i64, ptr %8, align 8, !tbaa !24
  %15 = icmp ule i64 %13, %14
  br i1 %15, label %16, label %33

16:                                               ; preds = %11
  call void @llvm.lifetime.start.p0(i64 8, ptr %10) #9
  %17 = load ptr, ptr %6, align 8, !tbaa !8
  %18 = load i64, ptr %9, align 8, !tbaa !24
  %19 = getelementptr inbounds nuw i8, ptr %17, i64 %18
  %20 = call i64 @mbedtls_get_unaligned_uint64(ptr noundef %19)
  %21 = load ptr, ptr %7, align 8, !tbaa !8
  %22 = load i64, ptr %9, align 8, !tbaa !24
  %23 = getelementptr inbounds nuw i8, ptr %21, i64 %22
  %24 = call i64 @mbedtls_get_unaligned_uint64(ptr noundef %23)
  %25 = xor i64 %20, %24
  store i64 %25, ptr %10, align 8, !tbaa !24
  %26 = load ptr, ptr %5, align 8, !tbaa !8
  %27 = load i64, ptr %9, align 8, !tbaa !24
  %28 = getelementptr inbounds nuw i8, ptr %26, i64 %27
  %29 = load i64, ptr %10, align 8, !tbaa !24
  call void @mbedtls_put_unaligned_uint64(ptr noundef %28, i64 noundef %29)
  call void @llvm.lifetime.end.p0(i64 8, ptr %10) #9
  br label %30

30:                                               ; preds = %16
  %31 = load i64, ptr %9, align 8, !tbaa !24
  %32 = add i64 %31, 8
  store i64 %32, ptr %9, align 8, !tbaa !24
  br label %11, !llvm.loop !28

33:                                               ; preds = %11
  br label %34

34:                                               ; preds = %54, %33
  %35 = load i64, ptr %9, align 8, !tbaa !24
  %36 = load i64, ptr %8, align 8, !tbaa !24
  %37 = icmp ult i64 %35, %36
  br i1 %37, label %38, label %57

38:                                               ; preds = %34
  %39 = load ptr, ptr %6, align 8, !tbaa !8
  %40 = load i64, ptr %9, align 8, !tbaa !24
  %41 = getelementptr inbounds nuw i8, ptr %39, i64 %40
  %42 = load i8, ptr %41, align 1, !tbaa !19
  %43 = zext i8 %42 to i32
  %44 = load ptr, ptr %7, align 8, !tbaa !8
  %45 = load i64, ptr %9, align 8, !tbaa !24
  %46 = getelementptr inbounds nuw i8, ptr %44, i64 %45
  %47 = load i8, ptr %46, align 1, !tbaa !19
  %48 = zext i8 %47 to i32
  %49 = xor i32 %43, %48
  %50 = trunc i32 %49 to i8
  %51 = load ptr, ptr %5, align 8, !tbaa !8
  %52 = load i64, ptr %9, align 8, !tbaa !24
  %53 = getelementptr inbounds nuw i8, ptr %51, i64 %52
  store i8 %50, ptr %53, align 1, !tbaa !19
  br label %54

54:                                               ; preds = %38
  %55 = load i64, ptr %9, align 8, !tbaa !24
  %56 = add i64 %55, 1
  store i64 %56, ptr %9, align 8, !tbaa !24
  br label %34, !llvm.loop !29

57:                                               ; preds = %34
  call void @llvm.lifetime.end.p0(i64 8, ptr %9) #9
  ret void
}

; Function Attrs: nounwind uwtable
define hidden i32 @mbedtls_aria_crypt_cbc(ptr noundef %0, i32 noundef %1, i64 noundef %2, ptr noundef %3, ptr noundef %4, ptr noundef %5) #0 {
  %7 = alloca i32, align 4
  %8 = alloca ptr, align 8
  %9 = alloca i32, align 4
  %10 = alloca i64, align 8
  %11 = alloca ptr, align 8
  %12 = alloca ptr, align 8
  %13 = alloca ptr, align 8
  %14 = alloca [16 x i8], align 16
  %15 = alloca i32, align 4
  store ptr %0, ptr %8, align 8, !tbaa !3
  store i32 %1, ptr %9, align 4, !tbaa !10
  store i64 %2, ptr %10, align 8, !tbaa !24
  store ptr %3, ptr %11, align 8, !tbaa !8
  store ptr %4, ptr %12, align 8, !tbaa !8
  store ptr %5, ptr %13, align 8, !tbaa !8
  call void @llvm.lifetime.start.p0(i64 16, ptr %14) #9
  %16 = load i32, ptr %9, align 4, !tbaa !10
  %17 = icmp ne i32 %16, 1
  br i1 %17, label %18, label %22

18:                                               ; preds = %6
  %19 = load i32, ptr %9, align 4, !tbaa !10
  %20 = icmp ne i32 %19, 0
  br i1 %20, label %21, label %22

21:                                               ; preds = %18
  store i32 -92, ptr %7, align 4
  store i32 1, ptr %15, align 4
  br label %75

22:                                               ; preds = %18, %6
  %23 = load i64, ptr %10, align 8, !tbaa !24
  %24 = urem i64 %23, 16
  %25 = icmp ne i64 %24, 0
  br i1 %25, label %26, label %27

26:                                               ; preds = %22
  store i32 -94, ptr %7, align 4
  store i32 1, ptr %15, align 4
  br label %75

27:                                               ; preds = %22
  %28 = load i32, ptr %9, align 4, !tbaa !10
  %29 = icmp eq i32 %28, 0
  br i1 %29, label %30, label %53

30:                                               ; preds = %27
  br label %31

31:                                               ; preds = %34, %30
  %32 = load i64, ptr %10, align 8, !tbaa !24
  %33 = icmp ugt i64 %32, 0
  br i1 %33, label %34, label %52

34:                                               ; preds = %31
  %35 = getelementptr inbounds [16 x i8], ptr %14, i64 0, i64 0
  %36 = load ptr, ptr %12, align 8, !tbaa !8
  call void @llvm.memcpy.p0.p0.i64(ptr align 16 %35, ptr align 1 %36, i64 16, i1 false)
  %37 = load ptr, ptr %8, align 8, !tbaa !3
  %38 = load ptr, ptr %12, align 8, !tbaa !8
  %39 = load ptr, ptr %13, align 8, !tbaa !8
  %40 = call i32 @mbedtls_aria_crypt_ecb(ptr noundef %37, ptr noundef %38, ptr noundef %39)
  %41 = load ptr, ptr %13, align 8, !tbaa !8
  %42 = load ptr, ptr %13, align 8, !tbaa !8
  %43 = load ptr, ptr %11, align 8, !tbaa !8
  call void @mbedtls_xor(ptr noundef %41, ptr noundef %42, ptr noundef %43, i64 noundef 16)
  %44 = load ptr, ptr %11, align 8, !tbaa !8
  %45 = getelementptr inbounds [16 x i8], ptr %14, i64 0, i64 0
  call void @llvm.memcpy.p0.p0.i64(ptr align 1 %44, ptr align 16 %45, i64 16, i1 false)
  %46 = load ptr, ptr %12, align 8, !tbaa !8
  %47 = getelementptr inbounds i8, ptr %46, i64 16
  store ptr %47, ptr %12, align 8, !tbaa !8
  %48 = load ptr, ptr %13, align 8, !tbaa !8
  %49 = getelementptr inbounds i8, ptr %48, i64 16
  store ptr %49, ptr %13, align 8, !tbaa !8
  %50 = load i64, ptr %10, align 8, !tbaa !24
  %51 = sub i64 %50, 16
  store i64 %51, ptr %10, align 8, !tbaa !24
  br label %31, !llvm.loop !26

52:                                               ; preds = %31
  br label %74

53:                                               ; preds = %27
  br label %54

54:                                               ; preds = %57, %53
  %55 = load i64, ptr %10, align 8, !tbaa !24
  %56 = icmp ugt i64 %55, 0
  br i1 %56, label %57, label %73

57:                                               ; preds = %54
  %58 = load ptr, ptr %13, align 8, !tbaa !8
  %59 = load ptr, ptr %12, align 8, !tbaa !8
  %60 = load ptr, ptr %11, align 8, !tbaa !8
  call void @mbedtls_xor(ptr noundef %58, ptr noundef %59, ptr noundef %60, i64 noundef 16)
  %61 = load ptr, ptr %8, align 8, !tbaa !3
  %62 = load ptr, ptr %13, align 8, !tbaa !8
  %63 = load ptr, ptr %13, align 8, !tbaa !8
  %64 = call i32 @mbedtls_aria_crypt_ecb(ptr noundef %61, ptr noundef %62, ptr noundef %63)
  %65 = load ptr, ptr %11, align 8, !tbaa !8
  %66 = load ptr, ptr %13, align 8, !tbaa !8
  call void @llvm.memcpy.p0.p0.i64(ptr align 1 %65, ptr align 1 %66, i64 16, i1 false)
  %67 = load ptr, ptr %12, align 8, !tbaa !8
  %68 = getelementptr inbounds i8, ptr %67, i64 16
  store ptr %68, ptr %12, align 8, !tbaa !8
  %69 = load ptr, ptr %13, align 8, !tbaa !8
  %70 = getelementptr inbounds i8, ptr %69, i64 16
  store ptr %70, ptr %13, align 8, !tbaa !8
  %71 = load i64, ptr %10, align 8, !tbaa !24
  %72 = sub i64 %71, 16
  store i64 %72, ptr %10, align 8, !tbaa !24
  br label %54, !llvm.loop !27

73:                                               ; preds = %54
  br label %74

74:                                               ; preds = %73, %52
  store i32 0, ptr %7, align 4
  store i32 1, ptr %15, align 4
  br label %75

75:                                               ; preds = %74, %26, %21
  call void @llvm.lifetime.end.p0(i64 16, ptr %14) #9
  %76 = load i32, ptr %7, align 4
  ret i32 %76
}