; Function Attrs: nofree norecurse nosync nounwind memory(argmem: readwrite) uwtable
define hidden range(i32 -94, 1) i32 @mbedtls_aria_crypt_cbc(ptr noundef readonly captures(none) %0, i32 noundef %1, i64 noundef %2, ptr noundef captures(none) %3, ptr noundef readonly captures(none) %4, ptr noundef captures(none) %5) local_unnamed_addr #6 {
  %7 = alloca [16 x i8], align 16
  call void @llvm.lifetime.start.p0(i64 16, ptr nonnull %7)
  %or.cond = icmp ugt i32 %1, 1
  br i1 %or.cond, label %.loopexit, label %8

8:                                                ; preds = %6
  %9 = and i64 %2, 15
  %.not = icmp eq i64 %9, 0
  br i1 %.not, label %10, label %.loopexit

10:                                               ; preds = %8
  %11 = icmp eq i32 %1, 0
  %.not3556 = icmp eq i64 %2, 0
  br i1 %11, label %.preheader42, label %.preheader45

.preheader45:                                     ; preds = %10
  br i1 %.not3556, label %.loopexit, label %.preheader44.preheader

.preheader44.preheader:                           ; preds = %.preheader45
  %12 = getelementptr inbounds nuw i8, ptr %3, i64 8
  br label %.preheader44

.preheader42:                                     ; preds = %10
  br i1 %.not3556, label %.loopexit, label %.lr.ph60.preheader

.lr.ph60.preheader:                               ; preds = %.preheader42
  %13 = getelementptr inbounds nuw i8, ptr %3, i64 8
  br label %.lr.ph60

.lr.ph60:                                         ; preds = %.lr.ph60.preheader, %.lr.ph60
  %.059 = phi ptr [ %19, %.lr.ph60 ], [ %5, %.lr.ph60.preheader ]
  %.02958 = phi ptr [ %18, %.lr.ph60 ], [ %4, %.lr.ph60.preheader ]
  %.03257 = phi i64 [ %20, %.lr.ph60 ], [ %2, %.lr.ph60.preheader ]
  call void @llvm.memcpy.p0.p0.i64(ptr noundef nonnull align 16 dereferenceable(16) %7, ptr noundef nonnull align 1 dereferenceable(16) %.02958, i64 16, i1 false)
  %14 = tail call i32 @mbedtls_aria_crypt_ecb(ptr noundef %0, ptr noundef nonnull %.02958, ptr noundef %.059)
  %.0.copyload.i41 = load i64, ptr %.059, align 1
  %.0.copyload.i40 = load i64, ptr %3, align 1
  %15 = xor i64 %.0.copyload.i40, %.0.copyload.i41
  store i64 %15, ptr %.059, align 1
  %16 = getelementptr inbounds nuw i8, ptr %.059, i64 8
  %.0.copyload.i41.c = load i64, ptr %16, align 1
  %.0.copyload.i40.c = load i64, ptr %13, align 1
  %17 = xor i64 %.0.copyload.i40.c, %.0.copyload.i41.c
  store i64 %17, ptr %16, align 1
  call void @llvm.memcpy.p0.p0.i64(ptr noundef nonnull align 1 dereferenceable(16) %3, ptr noundef nonnull align 16 dereferenceable(16) %7, i64 16, i1 false)
  %18 = getelementptr inbounds nuw i8, ptr %.02958, i64 16
  %19 = getelementptr inbounds nuw i8, ptr %.059, i64 16
  %20 = add i64 %.03257, -16
  %.not35 = icmp eq i64 %20, 0
  br i1 %.not35, label %.loopexit, label %.lr.ph60, !llvm.loop !16

.preheader44:                                     ; preds = %.preheader44.preheader, %.preheader44
  %.152 = phi ptr [ %27, %.preheader44 ], [ %5, %.preheader44.preheader ]
  %.13051 = phi ptr [ %26, %.preheader44 ], [ %4, %.preheader44.preheader ]
  %.13350 = phi i64 [ %28, %.preheader44 ], [ %2, %.preheader44.preheader ]
  %.0.copyload.i39 = load i64, ptr %.13051, align 1
  %.0.copyload.i = load i64, ptr %3, align 1
  %21 = xor i64 %.0.copyload.i, %.0.copyload.i39
  store i64 %21, ptr %.152, align 1
  %22 = getelementptr inbounds nuw i8, ptr %.13051, i64 8
  %.0.copyload.i39.c = load i64, ptr %22, align 1
  %.0.copyload.i.c = load i64, ptr %12, align 1
  %23 = xor i64 %.0.copyload.i.c, %.0.copyload.i39.c
  %24 = getelementptr inbounds nuw i8, ptr %.152, i64 8
  store i64 %23, ptr %24, align 1
  %25 = tail call i32 @mbedtls_aria_crypt_ecb(ptr noundef %0, ptr noundef nonnull %.152, ptr noundef nonnull %.152)
  tail call void @llvm.memcpy.p0.p0.i64(ptr noundef nonnull align 1 dereferenceable(16) %3, ptr noundef nonnull align 1 dereferenceable(16) %.152, i64 16, i1 false)
  %26 = getelementptr inbounds nuw i8, ptr %.13051, i64 16
  %27 = getelementptr inbounds nuw i8, ptr %.152, i64 16
  %28 = add i64 %.13350, -16
  %.not34 = icmp eq i64 %28, 0
  br i1 %.not34, label %.loopexit, label %.preheader44, !llvm.loop !17

.loopexit:                                        ; preds = %.preheader44, %.lr.ph60, %.preheader45, %.preheader42, %8, %6
  %.031 = phi i32 [ -92, %6 ], [ -94, %8 ], [ 0, %.preheader42 ], [ 0, %.preheader45 ], [ 0, %.lr.ph60 ], [ 0, %.preheader44 ]
  call void @llvm.lifetime.end.p0(i64 16, ptr nonnull %7)
  ret i32 %.031
}